target datalayout = "e-m:e-p270:32:32-p271:32:32-p272:64:64-i64:64-i128:128-f80:128-n8:16:32:64-S128"
target triple = "x86_64-pc-linux-gnu"

; Function Attrs: nounwind uwtable
define internal i64 @count_leap_years(i64 noundef %0) #0 {
  %2 = alloca i64, align 8
  store i64 %0, ptr %2, align 8, !tbaa !29
  %3 = load i64, ptr %2, align 8, !tbaa !29
  %4 = add i64 %3, -1
  store i64 %4, ptr %2, align 8, !tbaa !29
  %5 = load i64, ptr %2, align 8, !tbaa !29
  %6 = sdiv i64 %5, 4
  %7 = load i64, ptr %2, align 8, !tbaa !29
  %8 = sdiv i64 %7, 100
  %9 = sub i64 %6, %8
  %10 = load i64, ptr %2, align 8, !tbaa !29
  %11 = sdiv i64 %10, 400
  %12 = add i64 %9, %11
  ret i64 %12
}

; Function Attrs: nounwind uwtable
define hidden i64 @timelib_ts_at_start_of_year(i64 noundef %0) #0 {
  %2 = alloca i64, align 8
  %3 = alloca i64, align 8
  %4 = alloca i64, align 8
  store i64 %0, ptr %2, align 8, !tbaa !29
  call void @llvm.lifetime.start.p0(i64 8, ptr %3) #5
  %5 = call i64 @count_leap_years(i64 noundef 1970)
  store i64 %5, ptr %3, align 8, !tbaa !29
  call void @llvm.lifetime.start.p0(i64 8, ptr %4) #5
  %6 = load i64, ptr %2, align 8, !tbaa !29
  %7 = call i64 @count_leap_years(i64 noundef %6)
  store i64 %7, ptr %4, align 8, !tbaa !29
  %8 = load i64, ptr %2, align 8, !tbaa !29
  %9 = sub i64 %8, 1970
  %10 = mul i64 %9, 365
  %11 = load i64, ptr %4, align 8, !tbaa !29
  %12 = add i64 %10, %11
  %13 = load i64, ptr %3, align 8, !tbaa !29
  %14 = sub i64 %12, %13
  %15 = mul i64 86400, %14
  call void @llvm.lifetime.end.p0(i64 8, ptr %4) #5
  call void @llvm.lifetime.end.p0(i64 8, ptr %3) #5
  ret i64 %15
}