; Function Attrs: mustprogress nofree norecurse nosync nounwind willreturn memory(none) uwtable
define hidden i64 @timelib_ts_at_start_of_year(i64 noundef %0) local_unnamed_addr #5 {
  %2 = add i64 %0, -1
  %3 = sdiv i64 %2, 4
  %.neg.i = sdiv i64 %2, -100
  %4 = sdiv i64 %2, 400
  %5 = mul i64 %0, 365
  %6 = add i64 %5, -719050
  %7 = add i64 %6, %3
  %8 = add i64 %7, %.neg.i
  %9 = add i64 %8, %4
  %10 = mul i64 %9, 86400
  %11 = add i64 %10, -41212800
  ret i64 %11
}